target datalayout = "e-m:e-p270:32:32-p271:32:32-p272:64:64-i64:64-i128:128-f80:128-n8:16:32:64-S128"
target triple = "x86_64-pc-linux-gnu"

; Function Attrs: null_pointer_is_valid sspstrong uwtable
define internal void @OUT_RXString(ptr noundef %0, i32 noundef %1) #0 {
  %3 = alloca ptr, align 8
  %4 = alloca i32, align 4
  %5 = alloca i32, align 4
  %6 = alloca i32, align 4
  store ptr %0, ptr %3, align 8
  store i32 %1, ptr %4, align 4
  call void @llvm.lifetime.start.p0(i64 4, ptr %5) #9
  %7 = load ptr, ptr %3, align 8
  %8 = call i32 @ptvcursor_current_offset(ptr noundef %7)
  store i32 %8, ptr %5, align 4
  call void @llvm.lifetime.start.p0(i64 4, ptr %6) #9
  %9 = load ptr, ptr %3, align 8
  %10 = load i32, ptr %4, align 4
  %11 = call ptr @ptvcursor_add(ptr noundef %9, i32 noundef %10, i32 noundef 4, i32 noundef 0)
  %12 = load ptr, ptr %3, align 8
  %13 = call i32 @ptvcursor_current_offset(ptr noundef %12)
  store i32 %13, ptr %6, align 4
  %14 = load i32, ptr %6, align 4
  %15 = load i32, ptr %5, align 4
  %16 = sub i32 %14, %15
  %17 = and i32 %16, 3
  %18 = icmp ne i32 %17, 0
  br i1 %18, label %19, label %26

19:                                               ; preds = %2
  %20 = load ptr, ptr %3, align 8
  %21 = load i32, ptr %6, align 4
  %22 = load i32, ptr %5, align 4
  %23 = sub i32 %21, %22
  %24 = and i32 %23, 3
  %25 = sub i32 4, %24
  call void @ptvcursor_advance(ptr noundef %20, i32 noundef %25)
  br label %26

26:                                               ; preds = %19, %2
  call void @llvm.lifetime.end.p0(i64 4, ptr %6) #9
  call void @llvm.lifetime.end.p0(i64 4, ptr %5) #9
  ret void
}