; Function Attrs: null_pointer_is_valid sspstrong uwtable
define internal fastcc void @OUT_RXString(ptr noundef %0, i32 noundef %1) unnamed_addr #0 {
  %3 = tail call i32 @ptvcursor_current_offset(ptr noundef %0)
  %4 = tail call ptr @ptvcursor_add(ptr noundef %0, i32 noundef %1, i32 noundef 4, i32 noundef 0)
  %5 = tail call i32 @ptvcursor_current_offset(ptr noundef %0)
  %6 = sub i32 %5, %3
  %7 = and i32 %6, 3
  %.not = icmp eq i32 %7, 0
  br i1 %.not, label %10, label %8

8:                                                ; preds = %2
  %9 = sub nuw nsw i32 4, %7
  tail call void @ptvcursor_advance(ptr noundef %0, i32 noundef %9)
  br label %10

10:                                               ; preds = %8, %2
  ret void
}